
uart03.elf:     file format elf64-littleaarch64


Disassembly of section .text:

0000000000000000 <_start>:
   0:	d53800a0 	mrs	x0, mpidr_el1
   4:	d2bfe001 	mov	x1, #0xff000000            	// #4278190080
   8:	8a210000 	bic	x0, x0, x1
   c:	b4000160 	cbz	x0, 38 <zero>
  10:	d1000401 	sub	x1, x0, #0x1
  14:	b4000181 	cbz	x1, 44 <one>
  18:	d1000801 	sub	x1, x0, #0x2
  1c:	b40001c1 	cbz	x1, 54 <two>
  20:	d1000c01 	sub	x1, x0, #0x3
  24:	b4000201 	cbz	x1, 64 <three>
  28:	d53800a0 	mrs	x0, mpidr_el1
  2c:	d2a00081 	mov	x1, #0x40000               	// #262144
  30:	b9000020 	str	w0, [x1]
  34:	14000003 	b	40 <hang>

0000000000000038 <zero>:
  38:	b27103ff 	mov	sp, #0x8000                	// #32768
  3c:	940000e1 	bl	3c0 <notmain>

0000000000000040 <hang>:
  40:	14000000 	b	40 <hang>

0000000000000044 <one>:
  44:	d53800a0 	mrs	x0, mpidr_el1
  48:	d2a00021 	mov	x1, #0x10000               	// #65536
  4c:	b9000020 	str	w0, [x1]
  50:	17fffffc 	b	40 <hang>

0000000000000054 <two>:
  54:	d53800a0 	mrs	x0, mpidr_el1
  58:	d2a00041 	mov	x1, #0x20000               	// #131072
  5c:	b9000020 	str	w0, [x1]
  60:	17fffff8 	b	40 <hang>

0000000000000064 <three>:
  64:	d53800a0 	mrs	x0, mpidr_el1
  68:	d2a00061 	mov	x1, #0x30000               	// #196608
  6c:	b9000020 	str	w0, [x1]
  70:	17fffff4 	b	40 <hang>

0000000000000074 <PUT32>:
  74:	b9000001 	str	w1, [x0]
  78:	d65f03c0 	ret

000000000000007c <GET32>:
  7c:	b9400000 	ldr	w0, [x0]
  80:	d65f03c0 	ret

0000000000000084 <GETPC>:
  84:	aa1e03e0 	mov	x0, x30
  88:	d65f03c0 	ret

000000000000008c <dummy>:
  8c:	d65f03c0 	ret
	...

00000000000000a0 <uart_lcr>:
  a0:	528a0a80 	mov	w0, #0x5054                	// #20564
  a4:	72a7e420 	movk	w0, #0x3f21, lsl #16
  a8:	17fffff5 	b	7c <GET32>

00000000000000ac <uart_recv>:
  ac:	a9bf7bfd 	stp	x29, x30, [sp, #-16]!
  b0:	910003fd 	mov	x29, sp
  b4:	d503201f 	nop
  b8:	d503201f 	nop
  bc:	d503201f 	nop
  c0:	528a0a80 	mov	w0, #0x5054                	// #20564
  c4:	72a7e420 	movk	w0, #0x3f21, lsl #16
  c8:	97ffffed 	bl	7c <GET32>
  cc:	3607ffa0 	tbz	w0, #0, c0 <uart_recv+0x14>
  d0:	528a0800 	mov	w0, #0x5040                	// #20544
  d4:	72a7e420 	movk	w0, #0x3f21, lsl #16
  d8:	97ffffe9 	bl	7c <GET32>
  dc:	a8c17bfd 	ldp	x29, x30, [sp], #16
  e0:	12001c00 	and	w0, w0, #0xff
  e4:	d65f03c0 	ret

00000000000000e8 <uart_check>:
  e8:	a9bf7bfd 	stp	x29, x30, [sp, #-16]!
  ec:	528a0a80 	mov	w0, #0x5054                	// #20564
  f0:	72a7e420 	movk	w0, #0x3f21, lsl #16
  f4:	910003fd 	mov	x29, sp
  f8:	97ffffe1 	bl	7c <GET32>
  fc:	a8c17bfd 	ldp	x29, x30, [sp], #16
 100:	12000000 	and	w0, w0, #0x1
 104:	d65f03c0 	ret

0000000000000108 <uart_send>:
 108:	a9be7bfd 	stp	x29, x30, [sp, #-32]!
 10c:	910003fd 	mov	x29, sp
 110:	f9000bf3 	str	x19, [sp, #16]
 114:	2a0003f3 	mov	w19, w0
 118:	d503201f 	nop
 11c:	d503201f 	nop
 120:	528a0a80 	mov	w0, #0x5054                	// #20564
 124:	72a7e420 	movk	w0, #0x3f21, lsl #16
 128:	97ffffd5 	bl	7c <GET32>
 12c:	362fffa0 	tbz	w0, #5, 120 <uart_send+0x18>
 130:	2a1303e1 	mov	w1, w19
 134:	528a0800 	mov	w0, #0x5040                	// #20544
 138:	f9400bf3 	ldr	x19, [sp, #16]
 13c:	72a7e420 	movk	w0, #0x3f21, lsl #16
 140:	a8c27bfd 	ldp	x29, x30, [sp], #32
 144:	17ffffcc 	b	74 <PUT32>

0000000000000148 <uart_flush>:
 148:	a9bf7bfd 	stp	x29, x30, [sp, #-16]!
 14c:	910003fd 	mov	x29, sp
 150:	528a0a80 	mov	w0, #0x5054                	// #20564
 154:	72a7e420 	movk	w0, #0x3f21, lsl #16
 158:	97ffffc9 	bl	7c <GET32>
 15c:	3747ffa0 	tbnz	w0, #8, 150 <uart_flush+0x8>
 160:	a8c17bfd 	ldp	x29, x30, [sp], #16
 164:	d65f03c0 	ret

0000000000000168 <hexstrings>:
 168:	a9bd7bfd 	stp	x29, x30, [sp, #-48]!
 16c:	910003fd 	mov	x29, sp
 170:	f90013f5 	str	x21, [sp, #32]
 174:	2a0003f5 	mov	w21, w0
 178:	a90153f3 	stp	x19, x20, [sp, #16]
 17c:	52800414 	mov	w20, #0x20                  	// #32
 180:	51001294 	sub	w20, w20, #0x4
 184:	1ad426a2 	lsr	w2, w21, w20
 188:	12000c42 	and	w2, w2, #0xf
 18c:	7100285f 	cmp	w2, #0xa
 190:	1100dc41 	add	w1, w2, #0x37
 194:	1100c042 	add	w2, w2, #0x30
 198:	1a813053 	csel	w19, w2, w1, cc	// cc = lo, ul, last
 19c:	d503201f 	nop
 1a0:	528a0a80 	mov	w0, #0x5054                	// #20564
 1a4:	72a7e420 	movk	w0, #0x3f21, lsl #16
 1a8:	97ffffb5 	bl	7c <GET32>
 1ac:	362fffa0 	tbz	w0, #5, 1a0 <hexstrings+0x38>
 1b0:	528a0800 	mov	w0, #0x5040                	// #20544
 1b4:	2a1303e1 	mov	w1, w19
 1b8:	72a7e420 	movk	w0, #0x3f21, lsl #16
 1bc:	97ffffae 	bl	74 <PUT32>
 1c0:	35fffe14 	cbnz	w20, 180 <hexstrings+0x18>
 1c4:	528a0a80 	mov	w0, #0x5054                	// #20564
 1c8:	72a7e420 	movk	w0, #0x3f21, lsl #16
 1cc:	97ffffac 	bl	7c <GET32>
 1d0:	362fffa0 	tbz	w0, #5, 1c4 <hexstrings+0x5c>
 1d4:	f94013f5 	ldr	x21, [sp, #32]
 1d8:	528a0800 	mov	w0, #0x5040                	// #20544
 1dc:	a94153f3 	ldp	x19, x20, [sp, #16]
 1e0:	52800401 	mov	w1, #0x20                  	// #32
 1e4:	a8c37bfd 	ldp	x29, x30, [sp], #48
 1e8:	72a7e420 	movk	w0, #0x3f21, lsl #16
 1ec:	17ffffa2 	b	74 <PUT32>

00000000000001f0 <hexstring>:
 1f0:	a9bf7bfd 	stp	x29, x30, [sp, #-16]!
 1f4:	910003fd 	mov	x29, sp
 1f8:	97ffffdc 	bl	168 <hexstrings>
 1fc:	d503201f 	nop
 200:	528a0a80 	mov	w0, #0x5054                	// #20564
 204:	72a7e420 	movk	w0, #0x3f21, lsl #16
 208:	97ffff9d 	bl	7c <GET32>
 20c:	362fffa0 	tbz	w0, #5, 200 <hexstring+0x10>
 210:	528a0800 	mov	w0, #0x5040                	// #20544
 214:	528001a1 	mov	w1, #0xd                   	// #13
 218:	72a7e420 	movk	w0, #0x3f21, lsl #16
 21c:	97ffff96 	bl	74 <PUT32>
 220:	528a0a80 	mov	w0, #0x5054                	// #20564
 224:	72a7e420 	movk	w0, #0x3f21, lsl #16
 228:	97ffff95 	bl	7c <GET32>
 22c:	362fffa0 	tbz	w0, #5, 220 <hexstring+0x30>
 230:	a8c17bfd 	ldp	x29, x30, [sp], #16
 234:	528a0800 	mov	w0, #0x5040                	// #20544
 238:	52800141 	mov	w1, #0xa                   	// #10
 23c:	72a7e420 	movk	w0, #0x3f21, lsl #16
 240:	17ffff8d 	b	74 <PUT32>

0000000000000244 <uart_init>:
 244:	a9be7bfd 	stp	x29, x30, [sp, #-32]!
 248:	528a0080 	mov	w0, #0x5004                	// #20484
 24c:	52800021 	mov	w1, #0x1                   	// #1
 250:	910003fd 	mov	x29, sp
 254:	72a7e420 	movk	w0, #0x3f21, lsl #16
 258:	f9000bf3 	str	x19, [sp, #16]
 25c:	97ffff86 	bl	74 <PUT32>
 260:	528a0880 	mov	w0, #0x5044                	// #20548
 264:	52800001 	mov	w1, #0x0                   	// #0
 268:	72a7e420 	movk	w0, #0x3f21, lsl #16
 26c:	97ffff82 	bl	74 <PUT32>
 270:	528a0c00 	mov	w0, #0x5060                	// #20576
 274:	52800001 	mov	w1, #0x0                   	// #0
 278:	72a7e420 	movk	w0, #0x3f21, lsl #16
 27c:	97ffff7e 	bl	74 <PUT32>
 280:	528a0980 	mov	w0, #0x504c                	// #20556
 284:	52800061 	mov	w1, #0x3                   	// #3
 288:	72a7e420 	movk	w0, #0x3f21, lsl #16
 28c:	97ffff7a 	bl	74 <PUT32>
 290:	528a0a00 	mov	w0, #0x5050                	// #20560
 294:	52800001 	mov	w1, #0x0                   	// #0
 298:	72a7e420 	movk	w0, #0x3f21, lsl #16
 29c:	97ffff76 	bl	74 <PUT32>
 2a0:	528a0880 	mov	w0, #0x5044                	// #20548
 2a4:	52800001 	mov	w1, #0x0                   	// #0
 2a8:	72a7e420 	movk	w0, #0x3f21, lsl #16
 2ac:	97ffff72 	bl	74 <PUT32>
 2b0:	528a0900 	mov	w0, #0x5048                	// #20552
 2b4:	528018c1 	mov	w1, #0xc6                  	// #198
 2b8:	72a7e420 	movk	w0, #0x3f21, lsl #16
 2bc:	97ffff6e 	bl	74 <PUT32>
 2c0:	528a0d00 	mov	w0, #0x5068                	// #20584
 2c4:	528021c1 	mov	w1, #0x10e                 	// #270
 2c8:	72a7e420 	movk	w0, #0x3f21, lsl #16
 2cc:	97ffff6a 	bl	74 <PUT32>
 2d0:	52800080 	mov	w0, #0x4                   	// #4
 2d4:	52800013 	mov	w19, #0x0                   	// #0
 2d8:	72a7e400 	movk	w0, #0x3f20, lsl #16
 2dc:	97ffff68 	bl	7c <GET32>
 2e0:	52840002 	mov	w2, #0x2000                	// #8192
 2e4:	2a0003e1 	mov	w1, w0
 2e8:	72a00022 	movk	w2, #0x1, lsl #16
 2ec:	120e6421 	and	w1, w1, #0xfffc0fff
 2f0:	52800080 	mov	w0, #0x4                   	// #4
 2f4:	2a020021 	orr	w1, w1, w2
 2f8:	72a7e400 	movk	w0, #0x3f20, lsl #16
 2fc:	97ffff5e 	bl	74 <PUT32>
 300:	52801280 	mov	w0, #0x94                  	// #148
 304:	52800001 	mov	w1, #0x0                   	// #0
 308:	72a7e400 	movk	w0, #0x3f20, lsl #16
 30c:	97ffff5a 	bl	74 <PUT32>
 310:	2a1303e0 	mov	w0, w19
 314:	11000673 	add	w19, w19, #0x1
 318:	97ffff5d 	bl	8c <dummy>
 31c:	71025a7f 	cmp	w19, #0x96
 320:	54ffff81 	b.ne	310 <uart_init+0xcc>  // b.any
 324:	52800013 	mov	w19, #0x0                   	// #0
 328:	52801300 	mov	w0, #0x98                  	// #152
 32c:	52980001 	mov	w1, #0xc000                	// #49152
 330:	72a7e400 	movk	w0, #0x3f20, lsl #16
 334:	97ffff50 	bl	74 <PUT32>
 338:	d503201f 	nop
 33c:	d503201f 	nop
 340:	2a1303e0 	mov	w0, w19
 344:	11000673 	add	w19, w19, #0x1
 348:	97ffff51 	bl	8c <dummy>
 34c:	71025a7f 	cmp	w19, #0x96
 350:	54ffff81 	b.ne	340 <uart_init+0xfc>  // b.any
 354:	52801300 	mov	w0, #0x98                  	// #152
 358:	52800001 	mov	w1, #0x0                   	// #0
 35c:	72a7e400 	movk	w0, #0x3f20, lsl #16
 360:	97ffff45 	bl	74 <PUT32>
 364:	f9400bf3 	ldr	x19, [sp, #16]
 368:	528a0c00 	mov	w0, #0x5060                	// #20576
 36c:	a8c27bfd 	ldp	x29, x30, [sp], #32
 370:	52800061 	mov	w1, #0x3                   	// #3
 374:	72a7e420 	movk	w0, #0x3f21, lsl #16
 378:	17ffff3f 	b	74 <PUT32>
 37c:	d503201f 	nop

0000000000000380 <timer_init>:
 380:	a9bf7bfd 	stp	x29, x30, [sp, #-16]!
 384:	52968100 	mov	w0, #0xb408                	// #46088
 388:	52a01f21 	mov	w1, #0xf90000              	// #16318464
 38c:	910003fd 	mov	x29, sp
 390:	72a7e000 	movk	w0, #0x3f00, lsl #16
 394:	97ffff38 	bl	74 <PUT32>
 398:	a8c17bfd 	ldp	x29, x30, [sp], #16
 39c:	52804001 	mov	w1, #0x200                 	// #512
 3a0:	52968100 	mov	w0, #0xb408                	// #46088
 3a4:	72a01f21 	movk	w1, #0xf9, lsl #16
 3a8:	72a7e000 	movk	w0, #0x3f00, lsl #16
 3ac:	17ffff32 	b	74 <PUT32>

00000000000003b0 <timer_tick>:
 3b0:	52968400 	mov	w0, #0xb420                	// #46112
 3b4:	72a7e000 	movk	w0, #0x3f00, lsl #16
 3b8:	17ffff31 	b	7c <GET32>
 3bc:	00000000 	udf	#0

00000000000003c0 <notmain>:
 3c0:	a9bf7bfd 	stp	x29, x30, [sp, #-16]!
 3c4:	910003fd 	mov	x29, sp
 3c8:	97ffff9f 	bl	244 <uart_init>
 3cc:	528acf00 	mov	w0, #0x5678                	// #22136
 3d0:	72a24680 	movk	w0, #0x1234, lsl #16
 3d4:	97ffff87 	bl	1f0 <hexstring>
 3d8:	97ffff2b 	bl	84 <GETPC>
 3dc:	97ffff85 	bl	1f0 <hexstring>
 3e0:	52a00020 	mov	w0, #0x10000               	// #65536
 3e4:	97ffff26 	bl	7c <GET32>
 3e8:	97ffff82 	bl	1f0 <hexstring>
 3ec:	52a00040 	mov	w0, #0x20000               	// #131072
 3f0:	97ffff23 	bl	7c <GET32>
 3f4:	97ffff7f 	bl	1f0 <hexstring>
 3f8:	52a00060 	mov	w0, #0x30000               	// #196608
 3fc:	97ffff20 	bl	7c <GET32>
 400:	97ffff7c 	bl	1f0 <hexstring>
 404:	52a00080 	mov	w0, #0x40000               	// #262144
 408:	97ffff1d 	bl	7c <GET32>
 40c:	97ffff79 	bl	1f0 <hexstring>
 410:	52800000 	mov	w0, #0x0                   	// #0
 414:	a8c17bfd 	ldp	x29, x30, [sp], #16
 418:	d65f03c0 	ret

Disassembly of section .comment:

0000000000000000 <.comment>:
   0:	3a434347 	ccmn	w26, w3, #0x7, mi	// mi = first
   4:	72412820 	.inst	0x72412820 ; undefined
   8:	4e47206d 	luti4	v13.16b, {v3.16b}, v7[0]
   c:	6f542055 	umlal2	v21.4s, v2.8h, v4.h[1]
  10:	68636c6f 	.inst	0x68636c6f ; undefined
  14:	206e6961 	.inst	0x206e6961 ; undefined
  18:	322e3431 	orr	w17, w1, #0xfffc0000
  1c:	6c65522e 	ldnp	d14, d20, [x17, #-432]
  20:	42282031 	.inst	0x42282031 ; undefined
  24:	646c6975 	.inst	0x646c6975 ; undefined
  28:	6d726120 	ldp	d0, d24, [x9, #-224]
  2c:	2e34312d 	usubw	v13.8h, v9.8h, v20.8b
  30:	29293235 	stp	w21, w12, [x17, #-184]
  34:	2e343120 	usubw	v0.8h, v9.8h, v20.8b
  38:	20312e32 	.inst	0x20312e32 ; undefined
  3c:	34323032 	cbz	w18, 64640 <notmain+0x64280>
  40:	39313131 	strb	w17, [x9, #3148]
	...
